; Function Attrs: nounwind uwtable
define ptr @l_Lake_LeanExeConfig_needs___proj___elambda__4___rarg(ptr noundef readonly captures(none) %0) local_unnamed_addr #1 {
  %2 = getelementptr inbounds nuw i8, ptr %0, i64 40
  %3 = load ptr, ptr %2, align 8, !tbaa !4
  %4 = ptrtoint ptr %3 to i64
  %5 = and i64 %4, 1
  %.not = icmp eq i64 %5, 0
  br i1 %.not, label %6, label %lean_inc.exit

6:                                                ; preds = %1
  %.val.i = load i32, ptr %3, align 4, !tbaa !10
  %7 = icmp sgt i32 %.val.i, 0
  br i1 %7, label %8, label %10, !prof !13

8:                                                ; preds = %6
  %9 = add nuw i32 %.val.i, 1
  store i32 %9, ptr %3, align 4, !tbaa !10
  br label %lean_inc.exit

10:                                               ; preds = %6
  %.not.i = icmp eq i32 %.val.i, 0
  br i1 %.not.i, label %lean_inc.exit, label %11

11:                                               ; preds = %10
  tail call void @lean_inc_ref_cold(ptr noundef nonnull %3) #7
  br label %lean_inc.exit

lean_inc.exit:                                    ; preds = %11, %10, %8, %1
  ret ptr %3
}